; Function Attrs: mustprogress uwtable
define hidden noundef nonnull align 8 dereferenceable(8) ptr @_ZNK3euf9ac_plugin16display_equationERSoRKNS0_2eqE(ptr noundef nonnull readonly align 8 captures(none) dereferenceable(432) %0, ptr noundef nonnull returned align 8 dereferenceable(8) %1, ptr noundef nonnull readonly align 8 captures(none) dereferenceable(40) %2) local_unnamed_addr #3 align 2 {
  %4 = getelementptr inbounds nuw i8, ptr %2, i64 8
  %5 = load i32, ptr %4, align 8, !tbaa !219
  %6 = icmp ult i32 %5, 3
  br i1 %6, label %switch.lookup, label %_ZNK3euf9ac_plugin14display_statusERSoNS0_9eq_statusE.exit

switch.lookup:                                    ; preds = %3
  %7 = zext nneg i32 %5 to i64
  %switch.gep = getelementptr inbounds nuw [3 x ptr], ptr @switch.table._ZNK3euf9ac_plugin14display_statusERSoNS0_9eq_statusE, i64 0, i64 %7
  %switch.load = load ptr, ptr %switch.gep, align 8
  %8 = tail call noundef nonnull align 8 dereferenceable(8) ptr @_ZSt16__ostream_insertIcSt11char_traitsIcEERSt13basic_ostreamIT_T0_ES6_PKS3_l(ptr noundef nonnull align 8 dereferenceable(8) %1, ptr noundef nonnull %switch.load, i64 noundef 1)
  br label %_ZNK3euf9ac_plugin14display_statusERSoNS0_9eq_statusE.exit

_ZNK3euf9ac_plugin14display_statusERSoNS0_9eq_statusE.exit: ; preds = %3, %switch.lookup
  %9 = tail call noundef nonnull align 8 dereferenceable(8) ptr @_ZSt16__ostream_insertIcSt11char_traitsIcEERSt13basic_ostreamIT_T0_ES6_PKS3_l(ptr noundef nonnull align 8 dereferenceable(8) %1, ptr noundef nonnull @.str.2, i64 noundef 1)
  %10 = load i32, ptr %2, align 8, !tbaa !221
  %11 = getelementptr inbounds nuw i8, ptr %0, i64 56
  %12 = load ptr, ptr %11, align 8, !tbaa !108
  %13 = zext i32 %10 to i64
  %14 = getelementptr inbounds nuw %"struct.euf::ac_plugin::monomial_t", ptr %12, i64 %13
  %15 = tail call noundef nonnull align 8 dereferenceable(8) ptr @_ZNK3euf9ac_plugin16display_monomialERSoRK10ptr_vectorINS0_4nodeEE(ptr noundef nonnull align 8 dereferenceable(432) %0, ptr noundef nonnull align 8 dereferenceable(8) %1, ptr noundef nonnull align 8 dereferenceable(24) %14)
  %16 = tail call noundef nonnull align 8 dereferenceable(8) ptr @_ZSt16__ostream_insertIcSt11char_traitsIcEERSt13basic_ostreamIT_T0_ES6_PKS3_l(ptr noundef nonnull align 8 dereferenceable(8) %1, ptr noundef nonnull @.str.3, i64 noundef 3)
  %17 = getelementptr inbounds nuw i8, ptr %2, i64 4
  %18 = load i32, ptr %17, align 4, !tbaa !222
  %19 = load ptr, ptr %11, align 8, !tbaa !108
  %20 = zext i32 %18 to i64
  %21 = getelementptr inbounds nuw %"struct.euf::ac_plugin::monomial_t", ptr %19, i64 %20
  %22 = tail call noundef nonnull align 8 dereferenceable(8) ptr @_ZNK3euf9ac_plugin16display_monomialERSoRK10ptr_vectorINS0_4nodeEE(ptr noundef nonnull align 8 dereferenceable(432) %0, ptr noundef nonnull align 8 dereferenceable(8) %1, ptr noundef nonnull align 8 dereferenceable(24) %21)
  ret ptr %1
}